target datalayout = "e-m:e-p270:32:32-p271:32:32-p272:64:64-i64:64-i128:128-f80:128-n8:16:32:64-S128"
target triple = "x86_64-pc-linux-gnu"

; Function Attrs: inlinehint nounwind uwtable
define internal ptr @Abc_UtilStrsav(ptr noundef %0) #4 {
  %2 = alloca ptr, align 8
  store ptr %0, ptr %2, align 8, !tbaa !53
  %3 = load ptr, ptr %2, align 8, !tbaa !53
  %4 = icmp ne ptr %3, null
  br i1 %4, label %5, label %13

5:                                                ; preds = %1
  %6 = load ptr, ptr %2, align 8, !tbaa !53
  %7 = call i64 @strlen(ptr noundef %6) #11
  %8 = add i64 %7, 1
  %9 = mul i64 1, %8
  %10 = call noalias ptr @malloc(i64 noundef %9) #10
  %11 = load ptr, ptr %2, align 8, !tbaa !53
  %12 = call ptr @strcpy(ptr noundef %10, ptr noundef %11) #9
  br label %14

13:                                               ; preds = %1
  br label %14

14:                                               ; preds = %13, %5
  %15 = phi ptr [ %12, %5 ], [ null, %13 ]
  ret ptr %15
}

; Function Attrs: nounwind uwtable
define ptr @Nwk_FileNameGeneric(ptr noundef %0) #0 {
  %2 = alloca ptr, align 8
  %3 = alloca ptr, align 8
  %4 = alloca ptr, align 8
  store ptr %0, ptr %2, align 8, !tbaa !53
  call void @llvm.lifetime.start.p0(i64 8, ptr %3) #9
  call void @llvm.lifetime.start.p0(i64 8, ptr %4) #9
  %5 = load ptr, ptr %2, align 8, !tbaa !53
  %6 = call ptr @Abc_UtilStrsav(ptr noundef %5)
  store ptr %6, ptr %4, align 8, !tbaa !53
  %7 = load ptr, ptr %4, align 8, !tbaa !53
  %8 = call ptr @strrchr(ptr noundef %7, i32 noundef 46) #11
  store ptr %8, ptr %3, align 8, !tbaa !53
  %9 = icmp ne ptr %8, null
  br i1 %9, label %10, label %12

10:                                               ; preds = %1
  %11 = load ptr, ptr %3, align 8, !tbaa !53
  store i8 0, ptr %11, align 1, !tbaa !54
  br label %12

12:                                               ; preds = %10, %1
  %13 = load ptr, ptr %4, align 8, !tbaa !53
  call void @llvm.lifetime.end.p0(i64 8, ptr %4) #9
  call void @llvm.lifetime.end.p0(i64 8, ptr %3) #9
  ret ptr %13
}