; Function Attrs: mustprogress nofree nounwind willreturn uwtable
define noundef ptr @Nwk_FileNameGeneric(ptr noundef readonly %0) local_unnamed_addr #9 {
  %.not.i = icmp eq ptr %0, null
  br i1 %.not.i, label %Abc_UtilStrsav.exit, label %2

2:                                                ; preds = %1
  %3 = tail call i64 @strlen(ptr noundef nonnull readonly dereferenceable(1) %0) #16
  %4 = add i64 %3, 1
  %5 = tail call noalias ptr @malloc(i64 noundef %4) #14
  %6 = tail call ptr @strcpy(ptr noundef nonnull dereferenceable(1) %5, ptr noundef nonnull readonly dereferenceable(1) %0) #15
  br label %Abc_UtilStrsav.exit

Abc_UtilStrsav.exit:                              ; preds = %1, %2
  %7 = phi ptr [ %5, %2 ], [ null, %1 ]
  %8 = tail call ptr @strrchr(ptr noundef nonnull dereferenceable(1) %7, i32 noundef 46) #16
  %.not = icmp eq ptr %8, null
  br i1 %.not, label %10, label %9

9:                                                ; preds = %Abc_UtilStrsav.exit
  store i8 0, ptr %8, align 1, !tbaa !46
  br label %10

10:                                               ; preds = %9, %Abc_UtilStrsav.exit
  ret ptr %7
}